; Function Attrs: mustprogress uwtable
define void @_ZN18FilterScriptDialog9updateGuiEv(ptr nocapture noundef nonnull readonly align 8 dereferenceable(64) %0) local_unnamed_addr #9 align 2 personality ptr @__gxx_personality_v0 {
  %2 = alloca %class.QString, align 8
  %3 = getelementptr inbounds i8, ptr %0, i64 48
  %4 = load ptr, ptr %3, align 8
  %5 = getelementptr inbounds i8, ptr %4, i64 8
  %6 = load ptr, ptr %5, align 8
  tail call void @_ZN11QListWidget5clearEv(ptr noundef nonnull align 8 dereferenceable(48) %6)
  %7 = getelementptr inbounds i8, ptr %0, i64 56
  %8 = load ptr, ptr %7, align 8
  %9 = getelementptr inbounds i8, ptr %8, i64 16
  %10 = load ptr, ptr %9, align 8, !noalias !10
  %11 = load atomic i32, ptr %10 monotonic, align 4, !noalias !11
  %12 = icmp ugt i32 %11, 1
  br i1 %12, label %13, label %_ZN5QListI29FilterNameParameterValuesPairE5beginEv.exit

13:                                               ; preds = %1
  %14 = getelementptr inbounds i8, ptr %10, i64 4
  %15 = load i32, ptr %14, align 4, !noalias !11
  tail call void @_ZN5QListI29FilterNameParameterValuesPairE13detach_helperEi(ptr noundef nonnull align 8 dereferenceable(8) %9, i32 noundef %15), !noalias !11
  %.pre.i = load ptr, ptr %9, align 8, !noalias !10
  br label %_ZN5QListI29FilterNameParameterValuesPairE5beginEv.exit

_ZN5QListI29FilterNameParameterValuesPairE5beginEv.exit: ; preds = %1, %13
  %16 = phi ptr [ %10, %1 ], [ %.pre.i, %13 ]
  %17 = getelementptr inbounds i8, ptr %16, i64 16
  %18 = getelementptr inbounds i8, ptr %16, i64 8
  %19 = load i32, ptr %18, align 8, !noalias !11
  %20 = sext i32 %19 to i64
  %21 = getelementptr inbounds ptr, ptr %17, i64 %20
  %22 = load atomic i32, ptr %16 monotonic, align 4, !noalias !14
  %23 = icmp ugt i32 %22, 1
  br i1 %23, label %24, label %_ZN5QListI29FilterNameParameterValuesPairE3endEv.exit

24:                                               ; preds = %_ZN5QListI29FilterNameParameterValuesPairE5beginEv.exit
  %25 = getelementptr inbounds i8, ptr %16, i64 4
  %26 = load i32, ptr %25, align 4, !noalias !14
  tail call void @_ZN5QListI29FilterNameParameterValuesPairE13detach_helperEi(ptr noundef nonnull align 8 dereferenceable(8) %9, i32 noundef %26), !noalias !14
  %.pre.i5 = load ptr, ptr %9, align 8, !noalias !14
  br label %_ZN5QListI29FilterNameParameterValuesPairE3endEv.exit

_ZN5QListI29FilterNameParameterValuesPairE3endEv.exit: ; preds = %_ZN5QListI29FilterNameParameterValuesPairE5beginEv.exit, %24
  %27 = phi ptr [ %16, %_ZN5QListI29FilterNameParameterValuesPairE5beginEv.exit ], [ %.pre.i5, %24 ]
  %28 = getelementptr inbounds i8, ptr %27, i64 16
  %29 = getelementptr inbounds i8, ptr %27, i64 12
  %30 = load i32, ptr %29, align 4, !noalias !14
  %31 = sext i32 %30 to i64
  %32 = getelementptr inbounds ptr, ptr %28, i64 %31
  %.not11 = icmp eq ptr %21, %32
  br i1 %.not11, label %._crit_edge, label %.lr.ph

.lr.ph:                                           ; preds = %_ZN5QListI29FilterNameParameterValuesPairE3endEv.exit, %_ZN7QStringD2Ev.exit
  %.sroa.08.012 = phi ptr [ %44, %_ZN7QStringD2Ev.exit ], [ %21, %_ZN5QListI29FilterNameParameterValuesPairE3endEv.exit ]
  %33 = load ptr, ptr %.sroa.08.012, align 8
  %34 = load ptr, ptr %3, align 8
  %35 = getelementptr inbounds i8, ptr %34, i64 8
  %36 = load ptr, ptr %35, align 8
  %37 = load ptr, ptr %33, align 8
  %38 = load ptr, ptr %37, align 8
  call void %38(ptr dead_on_unwind nonnull writable sret(%class.QString) align 8 %2, ptr noundef nonnull align 8 dereferenceable(40) %33)
  %39 = invoke noundef i32 @_ZNK11QListWidget5countEv(ptr noundef nonnull align 8 dereferenceable(48) %36)
          to label %.noexc unwind label %45

.noexc:                                           ; preds = %.lr.ph
  invoke void @_ZN11QListWidget10insertItemEiRK7QString(ptr noundef nonnull align 8 dereferenceable(48) %36, i32 noundef %39, ptr noundef nonnull align 8 dereferenceable(8) %2)
          to label %_ZN11QListWidget7addItemERK7QString.exit unwind label %45

_ZN11QListWidget7addItemERK7QString.exit:         ; preds = %.noexc
  %40 = load ptr, ptr %2, align 8
  %41 = load atomic i32, ptr %40 monotonic, align 4
  switch i32 %41, label %_ZN9QtPrivate8RefCount5derefEv.exit.i [
    i32 0, label %_ZN9QtPrivate8RefCount5derefEv.exit.thread2.i
    i32 -1, label %_ZN7QStringD2Ev.exit
  ]

_ZN9QtPrivate8RefCount5derefEv.exit.i:            ; preds = %_ZN11QListWidget7addItemERK7QString.exit
  %42 = atomicrmw sub ptr %40, i32 1 seq_cst, align 4
  %.not.i = icmp eq i32 %42, 1
  br i1 %.not.i, label %_ZN9QtPrivate8RefCount5derefEv.exit._ZN9QtPrivate8RefCount5derefEv.exit.thread2_crit_edge.i, label %_ZN7QStringD2Ev.exit

_ZN9QtPrivate8RefCount5derefEv.exit._ZN9QtPrivate8RefCount5derefEv.exit.thread2_crit_edge.i: ; preds = %_ZN9QtPrivate8RefCount5derefEv.exit.i
  %.pre.i7 = load ptr, ptr %2, align 8
  br label %_ZN9QtPrivate8RefCount5derefEv.exit.thread2.i

_ZN9QtPrivate8RefCount5derefEv.exit.thread2.i:    ; preds = %_ZN9QtPrivate8RefCount5derefEv.exit._ZN9QtPrivate8RefCount5derefEv.exit.thread2_crit_edge.i, %_ZN11QListWidget7addItemERK7QString.exit
  %43 = phi ptr [ %.pre.i7, %_ZN9QtPrivate8RefCount5derefEv.exit._ZN9QtPrivate8RefCount5derefEv.exit.thread2_crit_edge.i ], [ %40, %_ZN11QListWidget7addItemERK7QString.exit ]
  call void @_ZN10QArrayData10deallocateEPS_mm(ptr noundef %43, i64 noundef 2, i64 noundef 8) #18
  br label %_ZN7QStringD2Ev.exit

_ZN7QStringD2Ev.exit:                             ; preds = %_ZN11QListWidget7addItemERK7QString.exit, %_ZN9QtPrivate8RefCount5derefEv.exit.i, %_ZN9QtPrivate8RefCount5derefEv.exit.thread2.i
  %44 = getelementptr inbounds i8, ptr %.sroa.08.012, i64 8
  %.not = icmp eq ptr %44, %32
  br i1 %.not, label %._crit_edge, label %.lr.ph

45:                                               ; preds = %.noexc, %.lr.ph
  %46 = landingpad { ptr, i32 }
          cleanup
  call void @_ZN7QStringD2Ev(ptr noundef nonnull align 8 dereferenceable(8) %2) #18
  resume { ptr, i32 } %46

._crit_edge:                                      ; preds = %_ZN7QStringD2Ev.exit, %_ZN5QListI29FilterNameParameterValuesPairE3endEv.exit
  ret void
}